target datalayout = "e-m:e-p270:32:32-p271:32:32-p272:64:64-i64:64-i128:128-f80:128-n8:16:32:64-S128"
target triple = "x86_64-pc-linux-gnu"

%struct.Color = type { i8, i8, i8, i8 }
%struct.Vector2 = type { float, float }

; Function Attrs: nounwind uwtable
define void @DrawTriangleLines(<2 x float> %0, <2 x float> %1, <2 x float> %2, i32 %3) #0 {
  %5 = alloca %struct.Vector2, align 4
  %6 = alloca %struct.Vector2, align 4
  %7 = alloca %struct.Vector2, align 4
  %8 = alloca %struct.Color, align 1
  store <2 x float> %0, ptr %5, align 4
  store <2 x float> %1, ptr %6, align 4
  store <2 x float> %2, ptr %7, align 4
  store i32 %3, ptr %8, align 1
  call void @rlBegin(i32 noundef 1)
  %9 = getelementptr inbounds nuw %struct.Color, ptr %8, i32 0, i32 0
  %10 = load i8, ptr %9, align 1
  %11 = getelementptr inbounds nuw %struct.Color, ptr %8, i32 0, i32 1
  %12 = load i8, ptr %11, align 1
  %13 = getelementptr inbounds nuw %struct.Color, ptr %8, i32 0, i32 2
  %14 = load i8, ptr %13, align 1
  %15 = getelementptr inbounds nuw %struct.Color, ptr %8, i32 0, i32 3
  %16 = load i8, ptr %15, align 1
  call void @rlColor4ub(i8 noundef zeroext %10, i8 noundef zeroext %12, i8 noundef zeroext %14, i8 noundef zeroext %16)
  %17 = getelementptr inbounds nuw %struct.Vector2, ptr %5, i32 0, i32 0
  %18 = load float, ptr %17, align 4
  %19 = getelementptr inbounds nuw %struct.Vector2, ptr %5, i32 0, i32 1
  %20 = load float, ptr %19, align 4
  call void @rlVertex2f(float noundef %18, float noundef %20)
  %21 = getelementptr inbounds nuw %struct.Vector2, ptr %6, i32 0, i32 0
  %22 = load float, ptr %21, align 4
  %23 = getelementptr inbounds nuw %struct.Vector2, ptr %6, i32 0, i32 1
  %24 = load float, ptr %23, align 4
  call void @rlVertex2f(float noundef %22, float noundef %24)
  %25 = getelementptr inbounds nuw %struct.Vector2, ptr %6, i32 0, i32 0
  %26 = load float, ptr %25, align 4
  %27 = getelementptr inbounds nuw %struct.Vector2, ptr %6, i32 0, i32 1
  %28 = load float, ptr %27, align 4
  call void @rlVertex2f(float noundef %26, float noundef %28)
  %29 = getelementptr inbounds nuw %struct.Vector2, ptr %7, i32 0, i32 0
  %30 = load float, ptr %29, align 4
  %31 = getelementptr inbounds nuw %struct.Vector2, ptr %7, i32 0, i32 1
  %32 = load float, ptr %31, align 4
  call void @rlVertex2f(float noundef %30, float noundef %32)
  %33 = getelementptr inbounds nuw %struct.Vector2, ptr %7, i32 0, i32 0
  %34 = load float, ptr %33, align 4
  %35 = getelementptr inbounds nuw %struct.Vector2, ptr %7, i32 0, i32 1
  %36 = load float, ptr %35, align 4
  call void @rlVertex2f(float noundef %34, float noundef %36)
  %37 = getelementptr inbounds nuw %struct.Vector2, ptr %5, i32 0, i32 0
  %38 = load float, ptr %37, align 4
  %39 = getelementptr inbounds nuw %struct.Vector2, ptr %5, i32 0, i32 1
  %40 = load float, ptr %39, align 4
  call void @rlVertex2f(float noundef %38, float noundef %40)
  call void @rlEnd()
  ret void
}